target datalayout = "e-m:e-p270:32:32-p271:32:32-p272:64:64-i64:64-i128:128-f80:128-n8:16:32:64-S128"
target triple = "x86_64-unknown-linux-gnu"

%class.ref_vector = type { %class.ref_vector_core }
%class.ref_vector_core = type { %class.ref_manager_wrapper, %class.ptr_vector.27 }
%class.ref_manager_wrapper = type { ptr }
%class.ptr_vector.27 = type { %class.vector.28 }
%class.vector.28 = type { ptr }
%class.svector.17 = type { %class.vector.18 }
%class.vector.18 = type { ptr }
%class.obj_ref = type { ptr, ptr }
%class.ref_vector_core.53 = type { %class.ref_manager_wrapper.54, %class.ptr_vector.55 }
%class.ref_manager_wrapper.54 = type { ptr }
%class.ptr_vector.55 = type { %class.vector.56 }
%class.vector.56 = type { ptr }
%class.arith_util = type { ptr, ptr }
%class.ref_vector.52 = type { %class.ref_vector_core.53 }
%"struct.spacer::adhoc_rewriter_rpp" = type { ptr, %class.arith_util }
%class.rewriter_tpl = type { %class.rewriter_core, ptr, i32, %class.ptr_vector.27, %class.var_shifter, %class.inv_var_shifter, %class.obj_ref, %class.obj_ref.158, %class.obj_ref.158, %class.svector.17 }
%class.rewriter_core = type { ptr, ptr, i8, i8, %class.ptr_vector.146, ptr, %class.svector.148, %class.ref_vector, %class.ptr_vector.146, ptr, %class.ref_vector.52, %class.obj_hashtable.150, ptr, i32, %class.svector.156 }
%class.svector.148 = type { %class.vector.149 }
%class.vector.149 = type { ptr }
%class.ptr_vector.146 = type { %class.vector.147 }
%class.vector.147 = type { ptr }
%class.obj_hashtable.150 = type { %class.core_hashtable.base.154, [4 x i8] }
%class.core_hashtable.base.154 = type <{ ptr, i32, i32, i32 }>
%class.svector.156 = type { %class.vector.157 }
%class.vector.157 = type { ptr }
%class.var_shifter = type <{ %class.var_shifter_core, i32, i32, i32, [4 x i8] }>
%class.var_shifter_core = type { %class.rewriter_core }
%class.inv_var_shifter = type <{ %class.var_shifter_core, i32, [4 x i8] }>
%class.obj_ref.158 = type { ptr, ptr }

@_ZN12rewriter_tplIN6spacer18adhoc_rewriter_rppEEC1ER11ast_managerbRS1_ = weak_odr hidden unnamed_addr alias void (ptr, ptr, i1, ptr), ptr @_ZN12rewriter_tplIN6spacer18adhoc_rewriter_rppEEC2ER11ast_managerbRS1_
@_ZN12rewriter_tplIN6spacer18adhoc_rewriter_rppEED1Ev = weak_odr hidden unnamed_addr alias void (ptr), ptr @_ZN12rewriter_tplIN6spacer18adhoc_rewriter_rppEED2Ev

; Function Attrs: mustprogress uwtable
define weak_odr hidden void @_ZN12rewriter_tplIN6spacer18adhoc_rewriter_rppEEclEP4exprR7obj_refIS3_11ast_managerE(ptr noundef nonnull align 8 dereferenceable(536) %this, ptr noundef %t, ptr noundef nonnull align 8 dereferenceable(16) %result) #4 comdat align 2 {
entry:
  %this.addr = alloca ptr, align 8
  %t.addr = alloca ptr, align 8
  %result.addr = alloca ptr, align 8
  store ptr %this, ptr %this.addr, align 8
  store ptr %t, ptr %t.addr, align 8
  store ptr %result, ptr %result.addr, align 8
  %this1 = load ptr, ptr %this.addr, align 8
  %0 = load ptr, ptr %t.addr, align 8
  %1 = load ptr, ptr %result.addr, align 8
  %m_pr = getelementptr inbounds %class.rewriter_tpl, ptr %this1, i32 0, i32 7
  call void @_ZN12rewriter_tplIN6spacer18adhoc_rewriter_rppEEclEP4exprR7obj_refIS3_11ast_managerERS5_I3appS6_E(ptr noundef nonnull align 8 dereferenceable(536) %this1, ptr noundef %0, ptr noundef nonnull align 8 dereferenceable(16) %1, ptr noundef nonnull align 8 dereferenceable(16) %m_pr)
  ret void
}

; Function Attrs: mustprogress uwtable
define linkonce_odr hidden void @_ZN6spacer18adhoc_rewriter_rppC2ER11ast_manager(ptr noundef nonnull align 8 dereferenceable(24) %this, ptr noundef nonnull align 8 dereferenceable(976) %manager) unnamed_addr #4 comdat align 2 {
entry:
  %this.addr = alloca ptr, align 8
  %manager.addr = alloca ptr, align 8
  store ptr %this, ptr %this.addr, align 8
  store ptr %manager, ptr %manager.addr, align 8
  %this1 = load ptr, ptr %this.addr, align 8
  %m = getelementptr inbounds %"struct.spacer::adhoc_rewriter_rpp", ptr %this1, i32 0, i32 0
  %0 = load ptr, ptr %manager.addr, align 8
  store ptr %0, ptr %m, align 8
  %m_arith = getelementptr inbounds %"struct.spacer::adhoc_rewriter_rpp", ptr %this1, i32 0, i32 1
  %m2 = getelementptr inbounds %"struct.spacer::adhoc_rewriter_rpp", ptr %this1, i32 0, i32 0
  %1 = load ptr, ptr %m2, align 8
  call void @_ZN10arith_utilC1ER11ast_manager(ptr noundef nonnull align 8 dereferenceable(16) %m_arith, ptr noundef nonnull align 8 dereferenceable(976) %1)
  ret void
}

; Function Attrs: mustprogress nounwind uwtable
define linkonce_odr hidden noundef nonnull align 8 dereferenceable(976) ptr @_ZNK7obj_refI4expr11ast_managerE1mEv(ptr noundef nonnull align 8 dereferenceable(16) %this) #5 comdat align 2 {
entry:
  %this.addr = alloca ptr, align 8
  store ptr %this, ptr %this.addr, align 8
  %this1 = load ptr, ptr %this.addr, align 8
  %m_manager = getelementptr inbounds %class.obj_ref, ptr %this1, i32 0, i32 1
  %0 = load ptr, ptr %m_manager, align 8
  ret ptr %0
}

; Function Attrs: mustprogress uwtable
define hidden void @_ZN6spacer6mk_epp2rwEP4exprR7obj_refIS1_11ast_managerE(ptr noundef nonnull align 8 dereferenceable(72) %this, ptr noundef %e, ptr noundef nonnull align 8 dereferenceable(16) %out) #4 align 2 personality ptr @__gxx_personality_v0 {
entry:
  %this.addr = alloca ptr, align 8
  %e.addr = alloca ptr, align 8
  %out.addr = alloca ptr, align 8
  %cfg = alloca %"struct.spacer::adhoc_rewriter_rpp", align 8
  %arw = alloca %class.rewriter_tpl, align 8
  %exn.slot = alloca ptr, align 8
  %ehselector.slot = alloca i32, align 4
  store ptr %this, ptr %this.addr, align 8
  store ptr %e, ptr %e.addr, align 8
  store ptr %out, ptr %out.addr, align 8
  %0 = load ptr, ptr %out.addr, align 8
  %call = call noundef nonnull align 8 dereferenceable(976) ptr @_ZNK7obj_refI4expr11ast_managerE1mEv(ptr noundef nonnull align 8 dereferenceable(16) %0)
  call void @_ZN6spacer18adhoc_rewriter_rppC2ER11ast_manager(ptr noundef nonnull align 8 dereferenceable(24) %cfg, ptr noundef nonnull align 8 dereferenceable(976) %call)
  %1 = load ptr, ptr %out.addr, align 8
  %call2 = call noundef nonnull align 8 dereferenceable(976) ptr @_ZNK7obj_refI4expr11ast_managerE1mEv(ptr noundef nonnull align 8 dereferenceable(16) %1)
  call void @_ZN12rewriter_tplIN6spacer18adhoc_rewriter_rppEEC1ER11ast_managerbRS1_(ptr noundef nonnull align 8 dereferenceable(536) %arw, ptr noundef nonnull align 8 dereferenceable(976) %call2, i1 noundef zeroext false, ptr noundef nonnull align 8 dereferenceable(24) %cfg)
  %2 = load ptr, ptr %e.addr, align 8
  %3 = load ptr, ptr %out.addr, align 8
  invoke void @_ZN12rewriter_tplIN6spacer18adhoc_rewriter_rppEEclEP4exprR7obj_refIS3_11ast_managerE(ptr noundef nonnull align 8 dereferenceable(536) %arw, ptr noundef %2, ptr noundef nonnull align 8 dereferenceable(16) %3)
          to label %invoke.cont unwind label %lpad

invoke.cont:                                      ; preds = %entry
  call void @_ZN12rewriter_tplIN6spacer18adhoc_rewriter_rppEED1Ev(ptr noundef nonnull align 8 dereferenceable(536) %arw) #3
  ret void

lpad:                                             ; preds = %entry
  %4 = landingpad { ptr, i32 }
          cleanup
  %5 = extractvalue { ptr, i32 } %4, 0
  store ptr %5, ptr %exn.slot, align 8
  %6 = extractvalue { ptr, i32 } %4, 1
  store i32 %6, ptr %ehselector.slot, align 4
  call void @_ZN12rewriter_tplIN6spacer18adhoc_rewriter_rppEED1Ev(ptr noundef nonnull align 8 dereferenceable(536) %arw) #3
  br label %eh.resume

eh.resume:                                        ; preds = %lpad
  %exn = load ptr, ptr %exn.slot, align 8
  %sel = load i32, ptr %ehselector.slot, align 4
  %lpad.val = insertvalue { ptr, i32 } poison, ptr %exn, 0
  %lpad.val3 = insertvalue { ptr, i32 } %lpad.val, i32 %sel, 1
  resume { ptr, i32 } %lpad.val3
}