; Function Attrs: mustprogress uwtable
define hidden void @_ZN6spacer6mk_epp2rwEP4exprR7obj_refIS1_11ast_managerE(ptr nocapture noundef nonnull readnone align 8 dereferenceable(72) %this, ptr noundef %e, ptr noundef nonnull align 8 dereferenceable(16) %out) local_unnamed_addr #3 align 2 personality ptr @__gxx_personality_v0 {
entry:
  %cfg = alloca %"struct.spacer::adhoc_rewriter_rpp", align 8
  %arw = alloca %class.rewriter_tpl, align 8
  %m_manager.i = getelementptr inbounds i8, ptr %out, i64 8
  %0 = load ptr, ptr %m_manager.i, align 8
  store ptr %0, ptr %cfg, align 8
  %m_arith.i = getelementptr inbounds i8, ptr %cfg, i64 8
  call void @_ZN10arith_utilC1ER11ast_manager(ptr noundef nonnull align 8 dereferenceable(16) %m_arith.i, ptr noundef nonnull align 8 dereferenceable(976) %0)
  %1 = load ptr, ptr %m_manager.i, align 8
  call void @_ZN12rewriter_tplIN6spacer18adhoc_rewriter_rppEEC2ER11ast_managerbRS1_(ptr noundef nonnull align 8 dereferenceable(536) %arw, ptr noundef nonnull align 8 dereferenceable(976) %1, i1 noundef zeroext false, ptr noundef nonnull align 8 dereferenceable(24) %cfg)
  %m_pr.i = getelementptr inbounds i8, ptr %arw, i64 496
  invoke void @_ZN12rewriter_tplIN6spacer18adhoc_rewriter_rppEEclEP4exprR7obj_refIS3_11ast_managerERS5_I3appS6_E(ptr noundef nonnull align 8 dereferenceable(536) %arw, ptr noundef %e, ptr noundef nonnull align 8 dereferenceable(16) %out, ptr noundef nonnull align 8 dereferenceable(16) %m_pr.i)
          to label %invoke.cont unwind label %lpad

invoke.cont:                                      ; preds = %entry
  call void @_ZN12rewriter_tplIN6spacer18adhoc_rewriter_rppEED2Ev(ptr noundef nonnull align 8 dereferenceable(536) %arw) #20
  ret void

lpad:                                             ; preds = %entry
  %2 = landingpad { ptr, i32 }
          cleanup
  call void @_ZN12rewriter_tplIN6spacer18adhoc_rewriter_rppEED2Ev(ptr noundef nonnull align 8 dereferenceable(536) %arw) #20
  resume { ptr, i32 } %2
}